target datalayout = "e-m:e-p270:32:32-p271:32:32-p272:64:64-i64:64-i128:128-f80:128-n8:16:32:64-S128"
target triple = "x86_64-pc-linux-gnu"

%struct.client_io_t = type { i32, i32, i8, i32, i32, i32, ptr, i8, %union.pthread_cond_t, %union.pthread_mutex_t, i32, ptr, ptr, ptr, %union.pthread_mutex_t, ptr, i32, ptr, ptr, ptr, ptr, ptr, ptr, i32, i32, ptr }
%union.pthread_cond_t = type { %struct.__pthread_cond_s }
%struct.__pthread_cond_s = type { %union.__atomic_wide_counter, %union.__atomic_wide_counter, [2 x i32], [2 x i32], i32, i32, [2 x i32] }
%union.__atomic_wide_counter = type { i64 }
%union.pthread_mutex_t = type { %struct.__pthread_mutex_s }
%struct.__pthread_mutex_s = type { i32, i32, i32, i32, i32, i16, i16, %struct.__pthread_internal_list }
%struct.__pthread_internal_list = type { ptr, ptr }
%struct.timespec = type { i64, i64 }

@.str = private unnamed_addr constant [10 x i8] c"step_io.c\00", align 1
@.str.4 = private unnamed_addr constant [29 x i8] c"%s: pthread_mutex_lock(): %m\00", align 1
@.str.11 = private unnamed_addr constant [31 x i8] c"%s: pthread_mutex_unlock(): %m\00", align 1
@__func__.client_io_handler_finish = private unnamed_addr constant [25 x i8] c"client_io_handler_finish\00", align 1
@.str.13 = private unnamed_addr constant [39 x i8] c"%s:%d %s: pthread_cond_timedwait(): %m\00", align 1

; Function Attrs: nounwind uwtable
define dso_local void @client_io_handler_finish(ptr noundef %0) #0 {
  %2 = alloca ptr, align 8
  %3 = alloca i32, align 4
  %4 = alloca %struct.timespec, align 8
  %5 = alloca i32, align 4
  %6 = alloca i32, align 4
  store ptr %0, ptr %2, align 8
  %7 = load ptr, ptr %2, align 8
  %8 = icmp eq ptr %7, null
  br i1 %8, label %9, label %10

9:                                                ; preds = %1
  br label %63

10:                                               ; preds = %1
  %11 = load ptr, ptr %2, align 8
  %12 = getelementptr inbounds nuw %struct.client_io_t, ptr %11, i32 0, i32 13
  %13 = load ptr, ptr %12, align 8
  %14 = call i32 @eio_signal_shutdown(ptr noundef %13)
  br label %15

15:                                               ; preds = %10
  call void @llvm.lifetime.start.p0(i64 4, ptr %3) #9
  %16 = load ptr, ptr %2, align 8
  %17 = getelementptr inbounds nuw %struct.client_io_t, ptr %16, i32 0, i32 9
  %18 = call i32 @pthread_mutex_lock(ptr noundef %17) #9
  store i32 %18, ptr %3, align 4
  %19 = load i32, ptr %3, align 4
  %20 = icmp ne i32 %19, 0
  br i1 %20, label %21, label %24

21:                                               ; preds = %15
  %22 = load i32, ptr %3, align 4
  %23 = call ptr @__errno_location() #10
  store i32 %22, ptr %23, align 4
  call void (ptr, ...) @fatal_abort(ptr noundef @.str.4, ptr noundef @__func__.client_io_handler_finish) #11
  unreachable

24:                                               ; preds = %15
  call void @llvm.lifetime.end.p0(i64 4, ptr %3) #9
  br label %25

25:                                               ; preds = %24
  %26 = load ptr, ptr %2, align 8
  %27 = getelementptr inbounds nuw %struct.client_io_t, ptr %26, i32 0, i32 7
  %28 = load i8, ptr %27, align 8, !range !8, !noundef !9
  %29 = trunc i8 %28 to i1
  br i1 %29, label %30, label %52

30:                                               ; preds = %25
  call void @llvm.lifetime.start.p0(i64 16, ptr %4) #9
  call void @llvm.memset.p0.i64(ptr align 8 %4, i8 0, i64 16, i1 false)
  %31 = call i64 @time(ptr noundef null) #9
  %32 = add nsw i64 %31, 180
  %33 = getelementptr inbounds nuw %struct.timespec, ptr %4, i32 0, i32 0
  store i64 %32, ptr %33, align 8
  br label %34

34:                                               ; preds = %30
  call void @llvm.lifetime.start.p0(i64 4, ptr %5) #9
  %35 = load ptr, ptr %2, align 8
  %36 = getelementptr inbounds nuw %struct.client_io_t, ptr %35, i32 0, i32 8
  %37 = load ptr, ptr %2, align 8
  %38 = getelementptr inbounds nuw %struct.client_io_t, ptr %37, i32 0, i32 9
  %39 = call i32 @pthread_cond_timedwait(ptr noundef %36, ptr noundef %38, ptr noundef %4)
  store i32 %39, ptr %5, align 4
  %40 = load i32, ptr %5, align 4
  %41 = icmp ne i32 %40, 0
  br i1 %41, label %42, label %49

42:                                               ; preds = %34
  %43 = load i32, ptr %5, align 4
  %44 = icmp ne i32 %43, 110
  br i1 %44, label %45, label %49

45:                                               ; preds = %42
  %46 = load i32, ptr %5, align 4
  %47 = call ptr @__errno_location() #10
  store i32 %46, ptr %47, align 4
  %48 = call i32 (ptr, ...) @error(ptr noundef @.str.13, ptr noundef @.str, i32 noundef 1177, ptr noundef @__func__.client_io_handler_finish)
  br label %49

49:                                               ; preds = %45, %42, %34
  call void @llvm.lifetime.end.p0(i64 4, ptr %5) #9
  br label %50

50:                                               ; preds = %49
  br label %51

51:                                               ; preds = %50
  call void @llvm.lifetime.end.p0(i64 16, ptr %4) #9
  br label %52

52:                                               ; preds = %51, %25
  br label %53

53:                                               ; preds = %52
  call void @llvm.lifetime.start.p0(i64 4, ptr %6) #9
  %54 = load ptr, ptr %2, align 8
  %55 = getelementptr inbounds nuw %struct.client_io_t, ptr %54, i32 0, i32 9
  %56 = call i32 @pthread_mutex_unlock(ptr noundef %55) #9
  store i32 %56, ptr %6, align 4
  %57 = load i32, ptr %6, align 4
  %58 = icmp ne i32 %57, 0
  br i1 %58, label %59, label %62

59:                                               ; preds = %53
  %60 = load i32, ptr %6, align 4
  %61 = call ptr @__errno_location() #10
  store i32 %60, ptr %61, align 4
  call void (ptr, ...) @fatal_abort(ptr noundef @.str.11, ptr noundef @__func__.client_io_handler_finish) #11
  unreachable

62:                                               ; preds = %53
  call void @llvm.lifetime.end.p0(i64 4, ptr %6) #9
  br label %63

63:                                               ; preds = %9, %62
  ret void
}