; Function Attrs: nounwind uwtable
define dso_local void @client_io_handler_finish(ptr noundef %0) local_unnamed_addr #0 {
  %2 = alloca %struct.timespec, align 8
  %3 = icmp eq ptr %0, null
  br i1 %3, label %30, label %4

4:                                                ; preds = %1
  %5 = getelementptr inbounds nuw i8, ptr %0, i64 152
  %6 = load ptr, ptr %5, align 8
  %7 = tail call i32 @eio_signal_shutdown(ptr noundef %6) #10
  %8 = getelementptr inbounds nuw i8, ptr %0, i64 88
  %9 = tail call i32 @pthread_mutex_lock(ptr noundef nonnull %8) #10
  %.not = icmp eq i32 %9, 0
  br i1 %.not, label %12, label %10

10:                                               ; preds = %4
  %11 = tail call ptr @__errno_location() #11
  store i32 %9, ptr %11, align 4
  tail call void (ptr, ...) @fatal_abort(ptr noundef nonnull @.str.4, ptr noundef nonnull @__func__.client_io_handler_finish) #12
  unreachable

12:                                               ; preds = %4
  %13 = getelementptr inbounds nuw i8, ptr %0, i64 32
  %14 = load i8, ptr %13, align 8, !range !8, !noundef !9
  %15 = trunc nuw i8 %14 to i1
  br i1 %15, label %16, label %26

16:                                               ; preds = %12
  call void @llvm.lifetime.start.p0(i64 16, ptr nonnull %2) #10
  %17 = getelementptr inbounds nuw i8, ptr %2, i64 8
  store i64 0, ptr %17, align 8
  %18 = tail call i64 @time(ptr noundef null) #10
  %19 = add nsw i64 %18, 180
  store i64 %19, ptr %2, align 8
  %20 = getelementptr inbounds nuw i8, ptr %0, i64 40
  %21 = call i32 @pthread_cond_timedwait(ptr noundef nonnull %20, ptr noundef nonnull %8, ptr noundef nonnull %2) #10
  switch i32 %21, label %22 [
    i32 110, label %25
    i32 0, label %25
  ]

22:                                               ; preds = %16
  %23 = tail call ptr @__errno_location() #11
  store i32 %21, ptr %23, align 4
  %24 = call i32 (ptr, ...) @error(ptr noundef nonnull @.str.13, ptr noundef nonnull @.str, i32 noundef 1177, ptr noundef nonnull @__func__.client_io_handler_finish) #10
  br label %25

25:                                               ; preds = %16, %16, %22
  call void @llvm.lifetime.end.p0(i64 16, ptr nonnull %2) #10
  br label %26

26:                                               ; preds = %12, %25
  %27 = call i32 @pthread_mutex_unlock(ptr noundef nonnull %8) #10
  %.not17 = icmp eq i32 %27, 0
  br i1 %.not17, label %30, label %28

28:                                               ; preds = %26
  %29 = tail call ptr @__errno_location() #11
  store i32 %27, ptr %29, align 4
  call void (ptr, ...) @fatal_abort(ptr noundef nonnull @.str.11, ptr noundef nonnull @__func__.client_io_handler_finish) #12
  unreachable

30:                                               ; preds = %26, %1
  ret void
}